target datalayout = "e-m:e-p270:32:32-p271:32:32-p272:64:64-i64:64-i128:128-f80:128-n8:16:32:64-S128"
target triple = "x86_64-pc-linux-gnu"

%"class.std::filesystem::__cxx11::path" = type { %"class.std::__cxx11::basic_string", %"struct.std::filesystem::__cxx11::path::_List" }
%"class.std::__cxx11::basic_string" = type { %"struct.std::__cxx11::basic_string<char>::_Alloc_hider", i64, %union.anon }
%"struct.std::__cxx11::basic_string<char>::_Alloc_hider" = type { ptr }
%union.anon = type { i64, [8 x i8] }
%"struct.std::filesystem::__cxx11::path::_List" = type { %"class.std::unique_ptr" }
%"class.std::unique_ptr" = type { %"struct.std::__uniq_ptr_data" }
%"struct.std::__uniq_ptr_data" = type { %"class.std::__uniq_ptr_impl" }
%"class.std::__uniq_ptr_impl" = type { %"class.std::tuple" }
%"class.std::tuple" = type { %"struct.std::_Tuple_impl" }
%"struct.std::_Tuple_impl" = type { %"struct.std::_Head_base.1" }
%"struct.std::_Head_base.1" = type { ptr }

@.str = private unnamed_addr constant [124 x i8] c"generated/home/dtcxzyw/WorkSpace/Projects/compilers/llvm-opt-benchmark/bench/gromacs/gromacs/src/gromacs/domdec/utility.cpp\00", align 1
@.str.3 = private unnamed_addr constant [77 x i8] c"With screw pbc the unit cell can not have non-zero off-diagonal x-components\00", align 1
@.str.4 = private unnamed_addr constant [48 x i8] c"pbc=screw with non-zero box_zy is not supported\00", align 1

; Function Attrs: mustprogress uwtable
define void @_Z15check_screw_boxPA3_Kf(ptr noundef %0) #0 personality ptr @__gxx_personality_v0 {
  %2 = alloca ptr, align 8
  %3 = alloca %"class.std::filesystem::__cxx11::path", align 8
  %4 = alloca ptr, align 8
  %5 = alloca i32, align 4
  %6 = alloca %"class.std::filesystem::__cxx11::path", align 8
  store ptr %0, ptr %2, align 8, !tbaa !66
  %7 = load ptr, ptr %2, align 8, !tbaa !66
  %8 = getelementptr inbounds [3 x float], ptr %7, i64 1
  %9 = getelementptr inbounds [3 x float], ptr %8, i64 0, i64 0
  %10 = load float, ptr %9, align 4, !tbaa !68
  %11 = fcmp une float %10, 0.000000e+00
  br i1 %11, label %18, label %12

12:                                               ; preds = %1
  %13 = load ptr, ptr %2, align 8, !tbaa !66
  %14 = getelementptr inbounds [3 x float], ptr %13, i64 2
  %15 = getelementptr inbounds [3 x float], ptr %14, i64 0, i64 0
  %16 = load float, ptr %15, align 4, !tbaa !68
  %17 = fcmp une float %16, 0.000000e+00
  br i1 %17, label %18, label %24

18:                                               ; preds = %12, %1
  call void @llvm.lifetime.start.p0(i64 40, ptr %3) #15
  call void @_ZNSt10filesystem7__cxx114pathC2IA124_cS1_EERKT_NS1_6formatE(ptr noundef nonnull align 8 dereferenceable(40) %3, ptr noundef nonnull align 1 dereferenceable(124) @.str, i8 noundef zeroext 2)
  invoke void (i32, ptr, i32, ptr, ...) @_Z9gmx_fataliRKNSt10filesystem7__cxx114pathEiPKcz(i32 noundef 0, ptr noundef nonnull align 8 dereferenceable(40) %3, i32 noundef 96, ptr noundef @.str.3) #16
          to label %19 unwind label %20

19:                                               ; preds = %18
  unreachable

20:                                               ; preds = %18
  %21 = landingpad { ptr, i32 }
          cleanup
  %22 = extractvalue { ptr, i32 } %21, 0
  store ptr %22, ptr %4, align 8
  %23 = extractvalue { ptr, i32 } %21, 1
  store i32 %23, ptr %5, align 4
  call void @_ZNSt10filesystem7__cxx114pathD2Ev(ptr noundef nonnull align 8 dereferenceable(40) %3) #15
  call void @llvm.lifetime.end.p0(i64 40, ptr %3) #15
  br label %37

24:                                               ; preds = %12
  %25 = load ptr, ptr %2, align 8, !tbaa !66
  %26 = getelementptr inbounds [3 x float], ptr %25, i64 2
  %27 = getelementptr inbounds [3 x float], ptr %26, i64 0, i64 1
  %28 = load float, ptr %27, align 4, !tbaa !68
  %29 = fcmp une float %28, 0.000000e+00
  br i1 %29, label %30, label %36

30:                                               ; preds = %24
  call void @llvm.lifetime.start.p0(i64 40, ptr %6) #15
  call void @_ZNSt10filesystem7__cxx114pathC2IA124_cS1_EERKT_NS1_6formatE(ptr noundef nonnull align 8 dereferenceable(40) %6, ptr noundef nonnull align 1 dereferenceable(124) @.str, i8 noundef zeroext 2)
  invoke void (i32, ptr, i32, ptr, ...) @_Z9gmx_fataliRKNSt10filesystem7__cxx114pathEiPKcz(i32 noundef 0, ptr noundef nonnull align 8 dereferenceable(40) %6, i32 noundef 103, ptr noundef @.str.4) #16
          to label %31 unwind label %32

31:                                               ; preds = %30
  unreachable

32:                                               ; preds = %30
  %33 = landingpad { ptr, i32 }
          cleanup
  %34 = extractvalue { ptr, i32 } %33, 0
  store ptr %34, ptr %4, align 8
  %35 = extractvalue { ptr, i32 } %33, 1
  store i32 %35, ptr %5, align 4
  call void @_ZNSt10filesystem7__cxx114pathD2Ev(ptr noundef nonnull align 8 dereferenceable(40) %6) #15
  call void @llvm.lifetime.end.p0(i64 40, ptr %6) #15
  br label %37

36:                                               ; preds = %24
  ret void

37:                                               ; preds = %32, %20
  %38 = load ptr, ptr %4, align 8
  %39 = load i32, ptr %5, align 4
  %40 = insertvalue { ptr, i32 } poison, ptr %38, 0
  %41 = insertvalue { ptr, i32 } %40, i32 %39, 1
  resume { ptr, i32 } %41
}