; Function Attrs: mustprogress uwtable
define void @_Z15check_screw_boxPA3_Kf(ptr noundef readonly captures(none) %0) local_unnamed_addr #0 personality ptr @__gxx_personality_v0 {
  %2 = alloca %"class.std::filesystem::__cxx11::path", align 8
  %3 = alloca %"class.std::filesystem::__cxx11::path", align 8
  %4 = getelementptr inbounds nuw i8, ptr %0, i64 12
  %5 = load float, ptr %4, align 4, !tbaa !18
  %6 = fcmp une float %5, 0.000000e+00
  br i1 %6, label %11, label %7

7:                                                ; preds = %1
  %8 = getelementptr inbounds nuw i8, ptr %0, i64 24
  %9 = load float, ptr %8, align 4, !tbaa !18
  %10 = fcmp une float %9, 0.000000e+00
  br i1 %10, label %11, label %15

11:                                               ; preds = %7, %1
  call void @llvm.lifetime.start.p0(i64 40, ptr nonnull %2) #15
  call void @_ZNSt10filesystem7__cxx114pathC2IA124_cS1_EERKT_NS1_6formatE(ptr noundef nonnull align 8 dereferenceable(40) %2, ptr noundef nonnull align 1 dereferenceable(124) @.str, i8 noundef zeroext 2)
  invoke void (i32, ptr, i32, ptr, ...) @_Z9gmx_fataliRKNSt10filesystem7__cxx114pathEiPKcz(i32 noundef 0, ptr noundef nonnull align 8 dereferenceable(40) %2, i32 noundef 96, ptr noundef nonnull @.str.3) #16
          to label %12 unwind label %13

12:                                               ; preds = %11
  unreachable

13:                                               ; preds = %11
  %14 = landingpad { ptr, i32 }
          cleanup
  call void @_ZNSt10filesystem7__cxx114pathD2Ev(ptr noundef nonnull align 8 dereferenceable(40) %2) #15
  call void @llvm.lifetime.end.p0(i64 40, ptr nonnull %2) #15
  br label %24

15:                                               ; preds = %7
  %16 = getelementptr inbounds nuw i8, ptr %0, i64 28
  %17 = load float, ptr %16, align 4, !tbaa !18
  %18 = fcmp une float %17, 0.000000e+00
  br i1 %18, label %19, label %23

19:                                               ; preds = %15
  call void @llvm.lifetime.start.p0(i64 40, ptr nonnull %3) #15
  call void @_ZNSt10filesystem7__cxx114pathC2IA124_cS1_EERKT_NS1_6formatE(ptr noundef nonnull align 8 dereferenceable(40) %3, ptr noundef nonnull align 1 dereferenceable(124) @.str, i8 noundef zeroext 2)
  invoke void (i32, ptr, i32, ptr, ...) @_Z9gmx_fataliRKNSt10filesystem7__cxx114pathEiPKcz(i32 noundef 0, ptr noundef nonnull align 8 dereferenceable(40) %3, i32 noundef 103, ptr noundef nonnull @.str.4) #16
          to label %20 unwind label %21

20:                                               ; preds = %19
  unreachable

21:                                               ; preds = %19
  %22 = landingpad { ptr, i32 }
          cleanup
  call void @_ZNSt10filesystem7__cxx114pathD2Ev(ptr noundef nonnull align 8 dereferenceable(40) %3) #15
  call void @llvm.lifetime.end.p0(i64 40, ptr nonnull %3) #15
  br label %24

23:                                               ; preds = %15
  ret void

24:                                               ; preds = %21, %13
  %.pn = phi { ptr, i32 } [ %14, %13 ], [ %22, %21 ]
  resume { ptr, i32 } %.pn
}